target datalayout = "e-m:e-p270:32:32-p271:32:32-p272:64:64-i64:64-i128:128-f80:128-n8:16:32:64-S128"
target triple = "x86_64-pc-linux-gnu"

%struct.pcre2_memctl = type { ptr, ptr, ptr }
%struct.pcre2_real_code_8 = type { %struct.pcre2_memctl, ptr, ptr, [32 x i8], i64, i32, i32, i32, i32, i32, i32, i32, i32, i32, i32, i16, i16, i16, i16, i16, i16, i16, i16 }

; Function Attrs: nounwind uwtable
define void @php_pcre2_code_free(ptr noundef %0) #0 {
  %2 = alloca ptr, align 8
  %3 = alloca ptr, align 8
  store ptr %0, ptr %2, align 8
  %4 = load ptr, ptr %2, align 8
  %5 = icmp ne ptr %4, null
  br i1 %5, label %6, label %62

6:                                                ; preds = %1
  %7 = load ptr, ptr %2, align 8
  %8 = getelementptr inbounds %struct.pcre2_real_code_8, ptr %7, i32 0, i32 2
  %9 = load ptr, ptr %8, align 8
  %10 = icmp ne ptr %9, null
  br i1 %10, label %11, label %17

11:                                               ; preds = %6
  %12 = load ptr, ptr %2, align 8
  %13 = getelementptr inbounds %struct.pcre2_real_code_8, ptr %12, i32 0, i32 2
  %14 = load ptr, ptr %13, align 8
  %15 = load ptr, ptr %2, align 8
  %16 = getelementptr inbounds %struct.pcre2_real_code_8, ptr %15, i32 0, i32 0
  call void @_pcre2_jit_free_8(ptr noundef %14, ptr noundef %16)
  br label %17

17:                                               ; preds = %11, %6
  %18 = load ptr, ptr %2, align 8
  %19 = getelementptr inbounds %struct.pcre2_real_code_8, ptr %18, i32 0, i32 9
  %20 = load i32, ptr %19, align 8
  %21 = and i32 %20, 262144
  %22 = icmp ne i32 %21, 0
  br i1 %22, label %23, label %52

23:                                               ; preds = %17
  %24 = load ptr, ptr %2, align 8
  %25 = getelementptr inbounds %struct.pcre2_real_code_8, ptr %24, i32 0, i32 1
  %26 = load ptr, ptr %25, align 8
  %27 = getelementptr inbounds i8, ptr %26, i64 1088
  store ptr %27, ptr %3, align 8
  %28 = load ptr, ptr %3, align 8
  %29 = load i64, ptr %28, align 8
  %30 = icmp ugt i64 %29, 0
  br i1 %30, label %31, label %51

31:                                               ; preds = %23
  %32 = load ptr, ptr %3, align 8
  %33 = load i64, ptr %32, align 8
  %34 = add i64 %33, -1
  store i64 %34, ptr %32, align 8
  %35 = load ptr, ptr %3, align 8
  %36 = load i64, ptr %35, align 8
  %37 = icmp eq i64 %36, 0
  br i1 %37, label %38, label %50

38:                                               ; preds = %31
  %39 = load ptr, ptr %2, align 8
  %40 = getelementptr inbounds %struct.pcre2_real_code_8, ptr %39, i32 0, i32 0
  %41 = getelementptr inbounds %struct.pcre2_memctl, ptr %40, i32 0, i32 1
  %42 = load ptr, ptr %41, align 8
  %43 = load ptr, ptr %2, align 8
  %44 = getelementptr inbounds %struct.pcre2_real_code_8, ptr %43, i32 0, i32 1
  %45 = load ptr, ptr %44, align 8
  %46 = load ptr, ptr %2, align 8
  %47 = getelementptr inbounds %struct.pcre2_real_code_8, ptr %46, i32 0, i32 0
  %48 = getelementptr inbounds %struct.pcre2_memctl, ptr %47, i32 0, i32 2
  %49 = load ptr, ptr %48, align 8
  call void %42(ptr noundef %45, ptr noundef %49)
  br label %50

50:                                               ; preds = %38, %31
  br label %51

51:                                               ; preds = %50, %23
  br label %52

52:                                               ; preds = %51, %17
  %53 = load ptr, ptr %2, align 8
  %54 = getelementptr inbounds %struct.pcre2_real_code_8, ptr %53, i32 0, i32 0
  %55 = getelementptr inbounds %struct.pcre2_memctl, ptr %54, i32 0, i32 1
  %56 = load ptr, ptr %55, align 8
  %57 = load ptr, ptr %2, align 8
  %58 = load ptr, ptr %2, align 8
  %59 = getelementptr inbounds %struct.pcre2_real_code_8, ptr %58, i32 0, i32 0
  %60 = getelementptr inbounds %struct.pcre2_memctl, ptr %59, i32 0, i32 2
  %61 = load ptr, ptr %60, align 8
  call void %56(ptr noundef %57, ptr noundef %61)
  br label %62

62:                                               ; preds = %52, %1
  ret void
}