; Function Attrs: nounwind uwtable
define void @php_pcre2_code_free(ptr noundef %0) local_unnamed_addr #0 {
  %.not = icmp eq ptr %0, null
  br i1 %.not, label %29, label %2

2:                                                ; preds = %1
  %3 = getelementptr inbounds i8, ptr %0, i64 32
  %4 = load ptr, ptr %3, align 8
  %.not17 = icmp eq ptr %4, null
  br i1 %.not17, label %6, label %5

5:                                                ; preds = %2
  tail call void @_pcre2_jit_free_8(ptr noundef nonnull %4, ptr noundef nonnull %0) #16
  br label %6

6:                                                ; preds = %5, %2
  %7 = getelementptr inbounds i8, ptr %0, i64 96
  %8 = load i32, ptr %7, align 8
  %9 = and i32 %8, 262144
  %.not18 = icmp eq i32 %9, 0
  br i1 %.not18, label %24, label %10

10:                                               ; preds = %6
  %11 = getelementptr inbounds i8, ptr %0, i64 24
  %12 = load ptr, ptr %11, align 8
  %13 = getelementptr inbounds i8, ptr %12, i64 1088
  %14 = load i64, ptr %13, align 8
  %.not19 = icmp eq i64 %14, 0
  br i1 %.not19, label %24, label %15

15:                                               ; preds = %10
  %16 = add i64 %14, -1
  store i64 %16, ptr %13, align 8
  %17 = icmp eq i64 %16, 0
  br i1 %17, label %18, label %24

18:                                               ; preds = %15
  %19 = getelementptr inbounds i8, ptr %0, i64 8
  %20 = load ptr, ptr %19, align 8
  %21 = load ptr, ptr %11, align 8
  %22 = getelementptr inbounds i8, ptr %0, i64 16
  %23 = load ptr, ptr %22, align 8
  tail call void %20(ptr noundef %21, ptr noundef %23) #16
  br label %24

24:                                               ; preds = %10, %18, %15, %6
  %25 = getelementptr inbounds i8, ptr %0, i64 8
  %26 = load ptr, ptr %25, align 8
  %27 = getelementptr inbounds i8, ptr %0, i64 16
  %28 = load ptr, ptr %27, align 8
  tail call void %26(ptr noundef nonnull %0, ptr noundef %28) #16
  br label %29

29:                                               ; preds = %24, %1
  ret void
}